Certificate:
    Data:
        Version: 1 (0x0)
        Serial Number: 4100 (0x1004)
    Signature Algorithm: sha1WithRSAEncryption
        Issuer: C=CN, ST=Guangdong, L=Shenzhen, O=FUTU, OU=OpenAPI, CN=futu5.com/emailAddress=openapi@futunn.com
        Validity
            Not Before: May  3 09:48:03 2016 GMT
            Not After : Apr 28 09:48:03 2017 GMT
        Subject: C=CN, ST=Guangdong, O=Tencent, OU=\, L=Shenzhen, CN=qq.com
        Subject Public Key Info:
            Public Key Algorithm: rsaEncryption
                Public-Key: (1024 bit)
                Modulus:
                    00:b3:88:8a:69:62:30:88:09:a4:0d:e8:37:fc:24:
                    fc:d7:d7:f0:6c:b2:19:38:be:89:6f:f0:75:fb:8b:
                    3f:1c:d3:28:83:f7:f6:5c:8c:f5:7a:c4:61:d3:0e:
                    51:cf:ea:e7:36:e0:08:7d:86:7f:76:25:9c:b9:c2:
                    38:d9:71:a8:c5:7d:96:f6:9b:e6:5e:33:95:f6:bd:
                    d0:46:88:45:57:43:f0:e0:8f:22:a8:61:8e:55:e7:
                    ee:fd:89:ab:9f:23:4d:ee:ee:6e:1a:56:93:58:93:
                    4f:72:ca:eb:54:24:94:ca:38:b5:cb:f0:45:f8:03:
                    af:6d:a8:e6:f6:43:78:23:01
                Exponent: 65537 (0x10001)
    Signature Algorithm: sha1WithRSAEncryption
         3a:aa:9d:b4:85:92:6f:54:b7:0a:37:0c:d0:5f:92:b6:8c:bf:
         66:a8:14:74:59:97:17:03:65:48:28:4a:ca:53:7f:23:61:0d:
         5f:b3:12:6a:40:10:04:0c:d1:ce:13:d3:07:50:62:a7:c3:07:
         0f:5f:9d:34:a9:ad:fc:55:56:ba:ea:b0:dd:22:11:68:26:b2:
         3b:06:47:06:a8:67:58:83:b3:48:c4:d3:18:d2:05:d6:9c:9e:
         c8:f3:d9:b8:07:62:75:39:be:ad:65:f6:1a:d6:cb:40:45:92:
         ae:ee:53:e2:b9:49:c1:9b:eb:93:03:21:40:d4:86:f0:c3:d0:
         d1:fb
-----BEGIN CERTIFICATE-----
MIICYDCCAckCAhAEMA0GCSqGSIb3DQEBBQUAMIGMMQswCQYDVQQGEwJDTjESMBAG
A1UECAwJR3Vhbmdkb25nMREwDwYDVQQHDAhTaGVuemhlbjENMAsGA1UECgwERlVU
VTEQMA4GA1UECwwHT3BlbkFQSTESMBAGA1UEAwwJZnV0dTUuY29tMSEwHwYJKoZI
hvcNAQkBFhJvcGVuYXBpQGZ1dHVubi5jb20wHhcNMTYwNTAzMDk0ODAzWhcNMTcw
NDI4MDk0ODAzWjBjMQswCQYDVQQGEwJDTjESMBAGA1UECBMJR3Vhbmdkb25nMRAw
DgYDVQQKEwdUZW5jZW50MQowCAYDVQQLFAFcMREwDwYDVQQHEwhTaGVuemhlbjEP
MA0GA1UEAxMGcXEuY29tMIGfMA0GCSqGSIb3DQEBAQUAA4GNADCBiQKBgQCziIpp
YjCICaQN6Df8JPzX1/Bsshk4volv8HX7iz8c0yiD9/ZcjPV6xGHTDlHP6uc24Ah9
hn92JZy5wjjZcajFfZb2m+ZeM5X2vdBGiEVXQ/DgjyKoYY5V5+79iaufI03u7m4a
VpNYk09yyutUJJTKOLXL8EX4A69tqOb2Q3gjAQIDAQABMA0GCSqGSIb3DQEBBQUA
A4GBADqqnbSFkm9Utwo3DNBfkraMv2aoFHRZlxcDZUgoSspTfyNhDV+zEmpAEAQM
0c4T0wdQYqfDBw9fnTSprfxVVrrqsN0iEWgmsjsGRwaoZ1iDs0jE0xjSBdacnsjz
2bgHYnU5vq1l9hrWy0BFkq7uU+K5ScGb65MDIUDUhvDD0NH7
-----END CERTIFICATE-----
